target datalayout = "e-m:e-p270:32:32-p271:32:32-p272:64:64-i64:64-i128:128-f80:128-n8:16:32:64-S128"
target triple = "x86_64-pc-linux-gnu"

@.str.360 = private unnamed_addr constant [46 x i8] c"../cpython/Modules/_testlimitedcapi/unicode.c\00", align 1
@.str.367 = private unnamed_addr constant [17 x i8] c"PyErr_Occurred()\00", align 1
@.str.368 = private unnamed_addr constant [18 x i8] c"!PyErr_Occurred()\00", align 1
@.str.392 = private unnamed_addr constant [23 x i8] c"OInni:unicode_findchar\00", align 1
@__PRETTY_FUNCTION__.unicode_findchar = private unnamed_addr constant [51 x i8] c"PyObject *unicode_findchar(PyObject *, PyObject *)\00", align 1

; Function Attrs: nounwind uwtable
define internal ptr @unicode_findchar(ptr noundef %0, ptr noundef %1) #0 {
  %3 = alloca ptr, align 8
  %4 = alloca ptr, align 8
  %5 = alloca ptr, align 8
  %6 = alloca ptr, align 8
  %7 = alloca i32, align 4
  %8 = alloca i32, align 4
  %9 = alloca i64, align 8
  %10 = alloca i64, align 8
  %11 = alloca i64, align 8
  %12 = alloca i32, align 4
  store ptr %0, ptr %4, align 8, !tbaa !3
  store ptr %1, ptr %5, align 8, !tbaa !3
  call void @llvm.lifetime.start.p0(i64 8, ptr %6) #7
  call void @llvm.lifetime.start.p0(i64 4, ptr %7) #7
  call void @llvm.lifetime.start.p0(i64 4, ptr %8) #7
  call void @llvm.lifetime.start.p0(i64 8, ptr %9) #7
  call void @llvm.lifetime.start.p0(i64 8, ptr %10) #7
  call void @llvm.lifetime.start.p0(i64 8, ptr %11) #7
  %13 = load ptr, ptr %5, align 8, !tbaa !3
  %14 = call i32 (ptr, ptr, ...) @PyArg_ParseTuple(ptr noundef %13, ptr noundef @.str.392, ptr noundef %6, ptr noundef %8, ptr noundef %10, ptr noundef %11, ptr noundef %7)
  %15 = icmp ne i32 %14, 0
  br i1 %15, label %17, label %16

16:                                               ; preds = %2
  store ptr null, ptr %3, align 8
  store i32 1, ptr %12, align 4
  br label %50

17:                                               ; preds = %2
  br label %18

18:                                               ; preds = %17
  %19 = load ptr, ptr %6, align 8, !tbaa !3
  %20 = call ptr @Py_GetConstantBorrowed(i32 noundef 0)
  %21 = icmp eq ptr %19, %20
  br i1 %21, label %22, label %23

22:                                               ; preds = %18
  store ptr null, ptr %6, align 8, !tbaa !3
  br label %23

23:                                               ; preds = %22, %18
  br label %24

24:                                               ; preds = %23
  br label %25

25:                                               ; preds = %24
  %26 = load ptr, ptr %6, align 8, !tbaa !3
  %27 = load i32, ptr %8, align 4, !tbaa !10
  %28 = load i64, ptr %10, align 8, !tbaa !12
  %29 = load i64, ptr %11, align 8, !tbaa !12
  %30 = load i32, ptr %7, align 4, !tbaa !10
  %31 = call i64 @PyUnicode_FindChar(ptr noundef %26, i32 noundef %27, i64 noundef %28, i64 noundef %29, i32 noundef %30)
  store i64 %31, ptr %9, align 8, !tbaa !12
  %32 = load i64, ptr %9, align 8, !tbaa !12
  %33 = icmp eq i64 %32, -2
  br i1 %33, label %34, label %41

34:                                               ; preds = %25
  %35 = call ptr @PyErr_Occurred()
  %36 = icmp ne ptr %35, null
  br i1 %36, label %37, label %38

37:                                               ; preds = %34
  br label %40

38:                                               ; preds = %34
  call void @__assert_fail(ptr noundef @.str.367, ptr noundef @.str.360, i32 noundef 1233, ptr noundef @__PRETTY_FUNCTION__.unicode_findchar) #8
  unreachable

39:                                               ; No predecessors!
  br label %40

40:                                               ; preds = %39, %37
  store ptr null, ptr %3, align 8
  store i32 1, ptr %12, align 4
  br label %50

41:                                               ; preds = %25
  %42 = call ptr @PyErr_Occurred()
  %43 = icmp ne ptr %42, null
  br i1 %43, label %45, label %44

44:                                               ; preds = %41
  br label %47

45:                                               ; preds = %41
  call void @__assert_fail(ptr noundef @.str.368, ptr noundef @.str.360, i32 noundef 1236, ptr noundef @__PRETTY_FUNCTION__.unicode_findchar) #8
  unreachable

46:                                               ; No predecessors!
  br label %47

47:                                               ; preds = %46, %44
  %48 = load i64, ptr %9, align 8, !tbaa !12
  %49 = call ptr @PyLong_FromSsize_t(i64 noundef %48)
  store ptr %49, ptr %3, align 8
  store i32 1, ptr %12, align 4
  br label %50

50:                                               ; preds = %47, %40, %16
  call void @llvm.lifetime.end.p0(i64 8, ptr %11) #7
  call void @llvm.lifetime.end.p0(i64 8, ptr %10) #7
  call void @llvm.lifetime.end.p0(i64 8, ptr %9) #7
  call void @llvm.lifetime.end.p0(i64 4, ptr %8) #7
  call void @llvm.lifetime.end.p0(i64 4, ptr %7) #7
  call void @llvm.lifetime.end.p0(i64 8, ptr %6) #7
  %51 = load ptr, ptr %3, align 8
  ret ptr %51
}