; Function Attrs: nounwind uwtable
define internal ptr @unicode_findchar(ptr readnone captures(none) %0, ptr noundef %1) #0 {
  %3 = alloca ptr, align 8
  %4 = alloca i32, align 4
  %5 = alloca i32, align 4
  %6 = alloca i64, align 8
  %7 = alloca i64, align 8
  call void @llvm.lifetime.start.p0(i64 8, ptr nonnull %3) #4
  call void @llvm.lifetime.start.p0(i64 4, ptr nonnull %4) #4
  call void @llvm.lifetime.start.p0(i64 4, ptr nonnull %5) #4
  call void @llvm.lifetime.start.p0(i64 8, ptr nonnull %6) #4
  call void @llvm.lifetime.start.p0(i64 8, ptr nonnull %7) #4
  %8 = call i32 (ptr, ptr, ...) @PyArg_ParseTuple(ptr noundef %1, ptr noundef nonnull @.str.392, ptr noundef nonnull %3, ptr noundef nonnull %5, ptr noundef nonnull %6, ptr noundef nonnull %7, ptr noundef nonnull %4) #4
  %.not = icmp eq i32 %8, 0
  br i1 %.not, label %29, label %9

9:                                                ; preds = %2
  %10 = load ptr, ptr %3, align 8, !tbaa !8
  %11 = call ptr @Py_GetConstantBorrowed(i32 noundef 0) #4
  %12 = icmp eq ptr %10, %11
  br i1 %12, label %13, label %._crit_edge

._crit_edge:                                      ; preds = %9
  %.pre = load ptr, ptr %3, align 8, !tbaa !8
  br label %14

13:                                               ; preds = %9
  store ptr null, ptr %3, align 8, !tbaa !8
  br label %14

14:                                               ; preds = %._crit_edge, %13
  %15 = phi ptr [ %.pre, %._crit_edge ], [ null, %13 ]
  %16 = load i32, ptr %5, align 4, !tbaa !12
  %17 = load i64, ptr %6, align 8, !tbaa !10
  %18 = load i64, ptr %7, align 8, !tbaa !10
  %19 = load i32, ptr %4, align 4, !tbaa !12
  %20 = call i64 @PyUnicode_FindChar(ptr noundef %15, i32 noundef %16, i64 noundef %17, i64 noundef %18, i32 noundef %19) #4
  %21 = icmp eq i64 %20, -2
  %22 = call ptr @PyErr_Occurred() #4
  %.not5 = icmp eq ptr %22, null
  br i1 %21, label %23, label %25

23:                                               ; preds = %14
  br i1 %.not5, label %24, label %29

24:                                               ; preds = %23
  call void @__assert_fail(ptr noundef nonnull @.str.367, ptr noundef nonnull @.str.360, i32 noundef 1233, ptr noundef nonnull @__PRETTY_FUNCTION__.unicode_findchar) #5
  unreachable

25:                                               ; preds = %14
  br i1 %.not5, label %27, label %26

26:                                               ; preds = %25
  call void @__assert_fail(ptr noundef nonnull @.str.368, ptr noundef nonnull @.str.360, i32 noundef 1236, ptr noundef nonnull @__PRETTY_FUNCTION__.unicode_findchar) #5
  unreachable

27:                                               ; preds = %25
  %28 = call ptr @PyLong_FromSsize_t(i64 noundef %20) #4
  br label %29

29:                                               ; preds = %23, %2, %27
  %.0 = phi ptr [ %28, %27 ], [ null, %2 ], [ null, %23 ]
  call void @llvm.lifetime.end.p0(i64 8, ptr nonnull %7) #4
  call void @llvm.lifetime.end.p0(i64 8, ptr nonnull %6) #4
  call void @llvm.lifetime.end.p0(i64 4, ptr nonnull %5) #4
  call void @llvm.lifetime.end.p0(i64 4, ptr nonnull %4) #4
  call void @llvm.lifetime.end.p0(i64 8, ptr nonnull %3) #4
  ret ptr %.0
}